target datalayout = "e-m:e-p270:32:32-p271:32:32-p272:64:64-i64:64-i128:128-f80:128-n8:16:32:64-S128"
target triple = "x86_64-pc-linux-gnu"

%"class.llvm::StringRef" = type { ptr, i64 }

; Function Attrs: mustprogress nounwind uwtable
define linkonce_odr hidden noundef zeroext i1 @_ZNK4llvm9StringRef12getAsIntegerIiEEbjRT_(ptr noundef nonnull align 8 dereferenceable(16) %0, i32 noundef %1, ptr noundef nonnull align 4 dereferenceable(4) %2) #0 comdat align 2 {
  %4 = alloca i1, align 1
  %5 = alloca ptr, align 8
  %6 = alloca i32, align 4
  %7 = alloca ptr, align 8
  %8 = alloca i64, align 8
  %9 = alloca %"class.llvm::StringRef", align 8
  store ptr %0, ptr %5, align 8
  store i32 %1, ptr %6, align 4
  store ptr %2, ptr %7, align 8
  %10 = load ptr, ptr %5, align 8
  call void @llvm.memcpy.p0.p0.i64(ptr align 8 %9, ptr align 8 %10, i64 16, i1 false)
  %11 = load i32, ptr %6, align 4
  %12 = getelementptr inbounds nuw { ptr, i64 }, ptr %9, i32 0, i32 0
  %13 = load ptr, ptr %12, align 8
  %14 = getelementptr inbounds nuw { ptr, i64 }, ptr %9, i32 0, i32 1
  %15 = load i64, ptr %14, align 8
  %16 = call noundef zeroext i1 @_ZN4llvm18getAsSignedIntegerENS_9StringRefEjRx(ptr %13, i64 %15, i32 noundef %11, ptr noundef nonnull align 8 dereferenceable(8) %8)
  br i1 %16, label %23, label %17

17:                                               ; preds = %3
  %18 = load i64, ptr %8, align 8
  %19 = trunc i64 %18 to i32
  %20 = sext i32 %19 to i64
  %21 = load i64, ptr %8, align 8
  %22 = icmp ne i64 %20, %21
  br i1 %22, label %23, label %24

23:                                               ; preds = %17, %3
  store i1 true, ptr %4, align 1
  br label %28

24:                                               ; preds = %17
  %25 = load i64, ptr %8, align 8
  %26 = trunc i64 %25 to i32
  %27 = load ptr, ptr %7, align 8
  store i32 %26, ptr %27, align 4
  store i1 false, ptr %4, align 1
  br label %28

28:                                               ; preds = %24, %23
  %29 = load i1, ptr %4, align 1
  ret i1 %29
}

; Function Attrs: mustprogress nounwind uwtable
define dso_local noundef i32 @_ZNK5clang15AnalyzerOptions23getCheckerIntegerOptionEN4llvm9StringRefES2_b(ptr noundef nonnull align 8 dereferenceable(488) %0, ptr %1, i64 %2, ptr %3, i64 %4, i1 noundef zeroext %5) #0 align 2 {
  %7 = alloca %"class.llvm::StringRef", align 8
  %8 = alloca %"class.llvm::StringRef", align 8
  %9 = alloca ptr, align 8
  %10 = alloca i8, align 1
  %11 = alloca i32, align 4
  %12 = alloca i8, align 1
  %13 = alloca %"class.llvm::StringRef", align 8
  %14 = alloca %"class.llvm::StringRef", align 8
  %15 = alloca %"class.llvm::StringRef", align 8
  %16 = getelementptr inbounds nuw { ptr, i64 }, ptr %7, i32 0, i32 0
  store ptr %1, ptr %16, align 8
  %17 = getelementptr inbounds nuw { ptr, i64 }, ptr %7, i32 0, i32 1
  store i64 %2, ptr %17, align 8
  %18 = getelementptr inbounds nuw { ptr, i64 }, ptr %8, i32 0, i32 0
  store ptr %3, ptr %18, align 8
  %19 = getelementptr inbounds nuw { ptr, i64 }, ptr %8, i32 0, i32 1
  store i64 %4, ptr %19, align 8
  store ptr %0, ptr %9, align 8
  %20 = zext i1 %5 to i8
  store i8 %20, ptr %10, align 1
  %21 = load ptr, ptr %9, align 8
  store i32 0, ptr %11, align 4
  call void @llvm.memcpy.p0.p0.i64(ptr align 8 %14, ptr align 8 %7, i64 16, i1 false)
  call void @llvm.memcpy.p0.p0.i64(ptr align 8 %15, ptr align 8 %8, i64 16, i1 false)
  %22 = load i8, ptr %10, align 1
  %23 = trunc i8 %22 to i1
  %24 = getelementptr inbounds nuw { ptr, i64 }, ptr %14, i32 0, i32 0
  %25 = load ptr, ptr %24, align 8
  %26 = getelementptr inbounds nuw { ptr, i64 }, ptr %14, i32 0, i32 1
  %27 = load i64, ptr %26, align 8
  %28 = getelementptr inbounds nuw { ptr, i64 }, ptr %15, i32 0, i32 0
  %29 = load ptr, ptr %28, align 8
  %30 = getelementptr inbounds nuw { ptr, i64 }, ptr %15, i32 0, i32 1
  %31 = load i64, ptr %30, align 8
  %32 = call { ptr, i64 } @_ZNK5clang15AnalyzerOptions22getCheckerStringOptionEN4llvm9StringRefES2_b(ptr noundef nonnull align 8 dereferenceable(488) %21, ptr %25, i64 %27, ptr %29, i64 %31, i1 noundef zeroext %23)
  %33 = getelementptr inbounds nuw { ptr, i64 }, ptr %13, i32 0, i32 0
  %34 = extractvalue { ptr, i64 } %32, 0
  store ptr %34, ptr %33, align 8
  %35 = getelementptr inbounds nuw { ptr, i64 }, ptr %13, i32 0, i32 1
  %36 = extractvalue { ptr, i64 } %32, 1
  store i64 %36, ptr %35, align 8
  %37 = call noundef zeroext i1 @_ZNK4llvm9StringRef12getAsIntegerIiEEbjRT_(ptr noundef nonnull align 8 dereferenceable(16) %13, i32 noundef 0, ptr noundef nonnull align 4 dereferenceable(4) %11)
  %38 = zext i1 %37 to i8
  store i8 %38, ptr %12, align 1
  %39 = load i32, ptr %11, align 4
  ret i32 %39
}