; Function Attrs: mustprogress nounwind uwtable
define dso_local noundef i32 @_ZNK5clang15AnalyzerOptions23getCheckerIntegerOptionEN4llvm9StringRefES2_b(ptr noundef nonnull align 8 dereferenceable(488) %0, ptr %1, i64 %2, ptr %3, i64 %4, i1 noundef zeroext %5) local_unnamed_addr #0 align 2 {
_ZNK4llvm9StringRef12getAsIntegerIiEEbjRT_.exit:
  %6 = alloca i64, align 8
  %7 = tail call { ptr, i64 } @_ZNK5clang15AnalyzerOptions22getCheckerStringOptionEN4llvm9StringRefES2_b(ptr noundef nonnull align 8 dereferenceable(488) %0, ptr %1, i64 %2, ptr %3, i64 %4, i1 noundef zeroext %5)
  %8 = extractvalue { ptr, i64 } %7, 0
  %9 = extractvalue { ptr, i64 } %7, 1
  call void @llvm.lifetime.start.p0(i64 8, ptr nonnull %6)
  %10 = call noundef zeroext i1 @_ZN4llvm18getAsSignedIntegerENS_9StringRefEjRx(ptr %8, i64 %9, i32 noundef 0, ptr noundef nonnull align 8 dereferenceable(8) %6) #12
  %11 = load i64, ptr %6, align 8
  %12 = add i64 %11, 2147483648
  %.not.i = icmp ult i64 %12, 4294967296
  %13 = trunc i64 %11 to i32
  %spec.select = select i1 %.not.i, i32 %13, i32 0
  %.0 = select i1 %10, i32 0, i32 %spec.select
  call void @llvm.lifetime.end.p0(i64 8, ptr nonnull %6)
  ret i32 %.0
}